target datalayout = "e-m:e-p270:32:32-p271:32:32-p272:64:64-i64:64-i128:128-f80:128-n8:16:32:64-S128"
target triple = "x86_64-pc-linux-gnu"

%struct.hwloc_topology = type { i32, i32, i32, ptr, ptr, i64, [20 x i32], [20 x i32], i64, i64, i32, ptr, i64, ptr, i64, [6 x %struct.hwloc_special_level_s], ptr, ptr, %struct.hwloc_binding_hooks, %struct.hwloc_topology_support, %struct.hwloc_infos_s, ptr, ptr, i32, ptr, ptr, i32, i32, ptr, i32, i32, ptr, i32, i32, i32, [5 x float], i32, ptr, ptr, i32, i32, ptr, i32, %struct.hwloc_numanode_attr_s, i32, i32, ptr, i64, i32, ptr, ptr, ptr }
%struct.hwloc_special_level_s = type { i32, ptr, ptr, ptr }
%struct.hwloc_binding_hooks = type { ptr, ptr, ptr, ptr, ptr, ptr, ptr, ptr, ptr, ptr, ptr, ptr, ptr, ptr, ptr, ptr, ptr, ptr, ptr, ptr, ptr, ptr, ptr, ptr }
%struct.hwloc_topology_support = type { ptr, ptr, ptr, ptr }
%struct.hwloc_infos_s = type { ptr, i32, i32 }
%struct.hwloc_numanode_attr_s = type { i64, i32, ptr }
%struct.hwloc_internal_distances_s = type { ptr, i32, i32, ptr, i32, ptr, ptr, i64, i32, ptr, ptr, ptr }

; Function Attrs: nounwind uwtable
define hidden void @hwloc_internal_distances_invalidate_cached_objs(ptr noundef %0) #0 {
  %2 = alloca ptr, align 8
  %3 = alloca ptr, align 8
  store ptr %0, ptr %2, align 8, !tbaa !3
  call void @llvm.lifetime.start.p0(i64 8, ptr %3) #15
  %4 = load ptr, ptr %2, align 8, !tbaa !3
  %5 = getelementptr inbounds nuw %struct.hwloc_topology, ptr %4, i32 0, i32 24
  %6 = load ptr, ptr %5, align 8, !tbaa !33
  store ptr %6, ptr %3, align 8, !tbaa !46
  br label %7

7:                                                ; preds = %15, %1
  %8 = load ptr, ptr %3, align 8, !tbaa !46
  %9 = icmp ne ptr %8, null
  br i1 %9, label %10, label %19

10:                                               ; preds = %7
  %11 = load ptr, ptr %3, align 8, !tbaa !46
  %12 = getelementptr inbounds nuw %struct.hwloc_internal_distances_s, ptr %11, i32 0, i32 8
  %13 = load i32, ptr %12, align 8, !tbaa !65
  %14 = and i32 %13, -2
  store i32 %14, ptr %12, align 8, !tbaa !65
  br label %15

15:                                               ; preds = %10
  %16 = load ptr, ptr %3, align 8, !tbaa !46
  %17 = getelementptr inbounds nuw %struct.hwloc_internal_distances_s, ptr %16, i32 0, i32 11
  %18 = load ptr, ptr %17, align 8, !tbaa !47
  store ptr %18, ptr %3, align 8, !tbaa !46
  br label %7, !llvm.loop !120

19:                                               ; preds = %7
  call void @llvm.lifetime.end.p0(i64 8, ptr %3) #15
  ret void
}