; Function Attrs: nofree norecurse nosync nounwind memory(readwrite, inaccessiblemem: none) uwtable
define hidden void @hwloc_internal_distances_invalidate_cached_objs(ptr noundef readonly captures(none) %0) local_unnamed_addr #18 {
  %2 = getelementptr inbounds nuw i8, ptr %0, i64 728
  %.04 = load ptr, ptr %2, align 8, !tbaa !51
  %.not5 = icmp eq ptr %.04, null
  br i1 %.not5, label %._crit_edge, label %.lr.ph

.lr.ph:                                           ; preds = %1, %.lr.ph
  %.06 = phi ptr [ %.0, %.lr.ph ], [ %.04, %1 ]
  %3 = getelementptr inbounds nuw i8, ptr %.06, i64 56
  %4 = load i32, ptr %3, align 8, !tbaa !59
  %5 = and i32 %4, -2
  store i32 %5, ptr %3, align 8, !tbaa !59
  %6 = getelementptr inbounds nuw i8, ptr %.06, i64 80
  %.0 = load ptr, ptr %6, align 8, !tbaa !51
  %.not = icmp eq ptr %.0, null
  br i1 %.not, label %._crit_edge, label %.lr.ph, !llvm.loop !118

._crit_edge:                                      ; preds = %.lr.ph, %1
  ret void
}